; Function Attrs: mustprogress nofree norecurse nosync nounwind willreturn memory(argmem: readwrite) uwtable
define void @_ZN7rocksdb22TestFSRandomAccessFileC2ERKNSt7__cxx1112basic_stringIcSt11char_traitsIcESaIcEEEOSt10unique_ptrINS_18FSRandomAccessFileESt14default_deleteISA_EEPNS_20FaultInjectionTestFSE(ptr nocapture noundef nonnull writeonly align 8 dereferenceable(24) %this, ptr nocapture nonnull readnone align 8 %0, ptr nocapture noundef nonnull align 8 dereferenceable(8) %f, ptr noundef %fs) unnamed_addr #8 align 2 {
entry:
  store ptr getelementptr inbounds ({ [14 x ptr] }, ptr @_ZTVN7rocksdb22TestFSRandomAccessFileE, i64 0, i32 0, i64 2), ptr %this, align 8
  %target_ = getelementptr inbounds i8, ptr %this, i64 8
  %1 = load i64, ptr %f, align 8
  store i64 %1, ptr %target_, align 8
  store ptr null, ptr %f, align 8
  %fs_ = getelementptr inbounds i8, ptr %this, i64 16
  store ptr %fs, ptr %fs_, align 8
  ret void
}